; ModuleID = '52/5929.cpp'
source_filename = "52/5929.cpp"
target datalayout = "e-m:e-p270:32:32-p271:32:32-p272:64:64-i64:64-f80:128-n8:16:32:64-S128"
target triple = "x86_64-pc-linux-gnu"

%"class.std::ios_base::Init" = type { i8 }
%"class.std::basic_istream" = type { i32 (...)**, i64, %"class.std::basic_ios" }
%"class.std::basic_ios" = type { %"class.std::ios_base", %"class.std::basic_ostream"*, i8, i8, %"class.std::basic_streambuf"*, %"class.std::ctype"*, %"class.std::num_put"*, %"class.std::num_get"* }
%"class.std::ios_base" = type { i32 (...)**, i64, i64, i32, i32, i32, %"struct.std::ios_base::_Callback_list"*, %"struct.std::ios_base::_Words", [8 x %"struct.std::ios_base::_Words"], i32, %"struct.std::ios_base::_Words"*, %"class.std::locale" }
%"struct.std::ios_base::_Callback_list" = type { %"struct.std::ios_base::_Callback_list"*, void (i32, %"class.std::ios_base"*, i32)*, i32, i32 }
%"struct.std::ios_base::_Words" = type { i8*, i64 }
%"class.std::locale" = type { %"class.std::locale::_Impl"* }
%"class.std::locale::_Impl" = type { i32, %"class.std::locale::facet"**, i64, %"class.std::locale::facet"**, i8** }
%"class.std::locale::facet" = type <{ i32 (...)**, i32, [4 x i8] }>
%"class.std::basic_ostream" = type { i32 (...)**, %"class.std::basic_ios" }
%"class.std::basic_streambuf" = type { i32 (...)**, i8*, i8*, i8*, i8*, i8*, i8*, %"class.std::locale" }
%"class.std::ctype" = type <{ %"class.std::locale::facet.base", [4 x i8], %struct.__locale_struct*, i8, [7 x i8], i32*, i32*, i16*, i8, [256 x i8], [256 x i8], i8, [6 x i8] }>
%"class.std::locale::facet.base" = type <{ i32 (...)**, i32 }>
%struct.__locale_struct = type { [13 x %struct.__locale_data*], i16*, i32*, i32*, [13 x i8*] }
%struct.__locale_data = type opaque
%"class.std::num_put" = type { %"class.std::locale::facet.base", [4 x i8] }
%"class.std::num_get" = type { %"class.std::locale::facet.base", [4 x i8] }

@_ZStL8__ioinit = internal global %"class.std::ios_base::Init" zeroinitializer, align 1
@__dso_handle = external hidden global i8
@_ZSt3cin = external dso_local global %"class.std::basic_istream", align 8
@_ZSt4cout = external dso_local global %"class.std::basic_ostream", align 8
@.str = private unnamed_addr constant [2 x i8] c" \00", align 1
@llvm.global_ctors = appending global [1 x { i32, void ()*, i8* }] [{ i32, void ()*, i8* } { i32 65535, void ()* @_GLOBAL__sub_I_5929.cpp, i8* null }]

; Function Attrs: noinline uwtable
define internal void @__cxx_global_var_init() #0 section ".text.startup" {
  call void @_ZNSt8ios_base4InitC1Ev(%"class.std::ios_base::Init"* @_ZStL8__ioinit)
  %1 = call i32 @__cxa_atexit(void (i8*)* bitcast (void (%"class.std::ios_base::Init"*)* @_ZNSt8ios_base4InitD1Ev to void (i8*)*), i8* getelementptr inbounds (%"class.std::ios_base::Init", %"class.std::ios_base::Init"* @_ZStL8__ioinit, i32 0, i32 0), i8* @__dso_handle) #3
  ret void
}

declare dso_local void @_ZNSt8ios_base4InitC1Ev(%"class.std::ios_base::Init"*) unnamed_addr #1

; Function Attrs: nounwind
declare dso_local void @_ZNSt8ios_base4InitD1Ev(%"class.std::ios_base::Init"*) unnamed_addr #2

; Function Attrs: nounwind
declare dso_local i32 @__cxa_atexit(void (i8*)*, i8*, i8*) #3

; Function Attrs: noinline norecurse uwtable
define dso_local i32 @main() #4 {
  %1 = alloca i32, align 4
  %2 = alloca i32, align 4
  %3 = alloca i32, align 4
  %4 = alloca [101 x i32], align 16
  %5 = alloca [101 x i32], align 16
  %6 = alloca i32*, align 8
  %7 = alloca i32*, align 8
  %8 = alloca i32, align 4
  store i32 0, i32* %1, align 4
  %9 = call dereferenceable(280) %"class.std::basic_istream"* @_ZNSirsERi(%"class.std::basic_istream"* @_ZSt3cin, i32* dereferenceable(4) %2)
  %10 = call dereferenceable(280) %"class.std::basic_istream"* @_ZNSirsERi(%"class.std::basic_istream"* %9, i32* dereferenceable(4) %3)
  %11 = getelementptr inbounds [101 x i32], [101 x i32]* %4, i64 0, i64 0
  store i32* %11, i32** %6, align 8
  %12 = getelementptr inbounds [101 x i32], [101 x i32]* %5, i64 0, i64 0
  store i32* %12, i32** %7, align 8
  store i32 0, i32* %8, align 4
  br label %13

13:                                               ; preds = %33, %0
  %14 = load i32, i32* %8, align 4
  %15 = load i32, i32* %2, align 4
  %16 = sub nsw i32 %15, 1
  %17 = icmp sle i32 %14, %16
  br i1 %17, label %18, label %36

18:                                               ; preds = %13
  %19 = load i32*, i32** %6, align 8
  %20 = load i32, i32* %8, align 4
  %21 = sext i32 %20 to i64
  %22 = getelementptr inbounds i32, i32* %19, i64 %21
  %23 = call dereferenceable(280) %"class.std::basic_istream"* @_ZNSirsERi(%"class.std::basic_istream"* @_ZSt3cin, i32* dereferenceable(4) %22)
  %24 = load i32*, i32** %6, align 8
  %25 = load i32, i32* %8, align 4
  %26 = sext i32 %25 to i64
  %27 = getelementptr inbounds i32, i32* %24, i64 %26
  %28 = load i32, i32* %27, align 4
  %29 = load i32*, i32** %7, align 8
  %30 = load i32, i32* %8, align 4
  %31 = sext i32 %30 to i64
  %32 = getelementptr inbounds i32, i32* %29, i64 %31
  store i32 %28, i32* %32, align 4
  br label %33

33:                                               ; preds = %18
  %34 = load i32, i32* %8, align 4
  %35 = add nsw i32 %34, 1
  store i32 %35, i32* %8, align 4
  br label %13

36:                                               ; preds = %13
  %37 = load i32, i32* %3, align 4
  store i32 %37, i32* %8, align 4
  br label %38

38:                                               ; preds = %57, %36
  %39 = load i32, i32* %8, align 4
  %40 = load i32, i32* %2, align 4
  %41 = sub nsw i32 %40, 1
  %42 = icmp sle i32 %39, %41
  br i1 %42, label %43, label %60

43:                                               ; preds = %38
  %44 = load i32*, i32** %7, align 8
  %45 = load i32, i32* %8, align 4
  %46 = sext i32 %45 to i64
  %47 = getelementptr inbounds i32, i32* %44, i64 %46
  %48 = load i32, i32* %3, align 4
  %49 = sext i32 %48 to i64
  %50 = sub i64 0, %49
  %51 = getelementptr inbounds i32, i32* %47, i64 %50
  %52 = load i32, i32* %51, align 4
  %53 = load i32*, i32** %6, align 8
  %54 = load i32, i32* %8, align 4
  %55 = sext i32 %54 to i64
  %56 = getelementptr inbounds i32, i32* %53, i64 %55
  store i32 %52, i32* %56, align 4
  br label %57

57:                                               ; preds = %43
  %58 = load i32, i32* %8, align 4
  %59 = add nsw i32 %58, 1
  store i32 %59, i32* %8, align 4
  br label %38

60:                                               ; preds = %38
  store i32 0, i32* %8, align 4
  br label %61

61:                                               ; preds = %83, %60
  %62 = load i32, i32* %8, align 4
  %63 = load i32, i32* %3, align 4
  %64 = sub nsw i32 %63, 1
  %65 = icmp sle i32 %62, %64
  br i1 %65, label %66, label %86

66:                                               ; preds = %61
  %67 = load i32*, i32** %7, align 8
  %68 = load i32, i32* %2, align 4
  %69 = sext i32 %68 to i64
  %70 = getelementptr inbounds i32, i32* %67, i64 %69
  %71 = load i32, i32* %3, align 4
  %72 = sext i32 %71 to i64
  %73 = sub i64 0, %72
  %74 = getelementptr inbounds i32, i32* %70, i64 %73
  %75 = load i32, i32* %8, align 4
  %76 = sext i32 %75 to i64
  %77 = getelementptr inbounds i32, i32* %74, i64 %76
  %78 = load i32, i32* %77, align 4
  %79 = load i32*, i32** %6, align 8
  %80 = load i32, i32* %8, align 4
  %81 = sext i32 %80 to i64
  %82 = getelementptr inbounds i32, i32* %79, i64 %81
  store i32 %78, i32* %82, align 4
  br label %83

83:                                               ; preds = %66
  %84 = load i32, i32* %8, align 4
  %85 = add nsw i32 %84, 1
  store i32 %85, i32* %8, align 4
  br label %61

86:                                               ; preds = %61
  store i32 0, i32* %8, align 4
  br label %87

87:                                               ; preds = %100, %86
  %88 = load i32, i32* %8, align 4
  %89 = load i32, i32* %2, align 4
  %90 = sub nsw i32 %89, 2
  %91 = icmp sle i32 %88, %90
  br i1 %91, label %92, label %103

92:                                               ; preds = %87
  %93 = load i32*, i32** %6, align 8
  %94 = load i32, i32* %8, align 4
  %95 = sext i32 %94 to i64
  %96 = getelementptr inbounds i32, i32* %93, i64 %95
  %97 = load i32, i32* %96, align 4
  %98 = call dereferenceable(272) %"class.std::basic_ostream"* @_ZNSolsEi(%"class.std::basic_ostream"* @_ZSt4cout, i32 %97)
  %99 = call dereferenceable(272) %"class.std::basic_ostream"* @_ZStlsISt11char_traitsIcEERSt13basic_ostreamIcT_ES5_PKc(%"class.std::basic_ostream"* dereferenceable(272) %98, i8* getelementptr inbounds ([2 x i8], [2 x i8]* @.str, i64 0, i64 0))
  br label %100

100:                                              ; preds = %92
  %101 = load i32, i32* %8, align 4
  %102 = add nsw i32 %101, 1
  store i32 %102, i32* %8, align 4
  br label %87

103:                                              ; preds = %87
  %104 = load i32*, i32** %6, align 8
  %105 = load i32, i32* %2, align 4
  %106 = sext i32 %105 to i64
  %107 = getelementptr inbounds i32, i32* %104, i64 %106
  %108 = getelementptr inbounds i32, i32* %107, i64 -1
  %109 = load i32, i32* %108, align 4
  %110 = call dereferenceable(272) %"class.std::basic_ostream"* @_ZNSolsEi(%"class.std::basic_ostream"* @_ZSt4cout, i32 %109)
  %111 = call dereferenceable(272) %"class.std::basic_ostream"* @_ZNSolsEPFRSoS_E(%"class.std::basic_ostream"* %110, %"class.std::basic_ostream"* (%"class.std::basic_ostream"*)* @_ZSt4endlIcSt11char_traitsIcEERSt13basic_ostreamIT_T0_ES6_)
  ret i32 0
}

declare dso_local dereferenceable(280) %"class.std::basic_istream"* @_ZNSirsERi(%"class.std::basic_istream"*, i32* dereferenceable(4)) #1

declare dso_local dereferenceable(272) %"class.std::basic_ostream"* @_ZStlsISt11char_traitsIcEERSt13basic_ostreamIcT_ES5_PKc(%"class.std::basic_ostream"* dereferenceable(272), i8*) #1

declare dso_local dereferenceable(272) %"class.std::basic_ostream"* @_ZNSolsEi(%"class.std::basic_ostream"*, i32) #1

declare dso_local dereferenceable(272) %"class.std::basic_ostream"* @_ZNSolsEPFRSoS_E(%"class.std::basic_ostream"*, %"class.std::basic_ostream"* (%"class.std::basic_ostream"*)*) #1

declare dso_local dereferenceable(272) %"class.std::basic_ostream"* @_ZSt4endlIcSt11char_traitsIcEERSt13basic_ostreamIT_T0_ES6_(%"class.std::basic_ostream"* dereferenceable(272)) #1

; Function Attrs: noinline uwtable
define internal void @_GLOBAL__sub_I_5929.cpp() #0 section ".text.startup" {
  call void @__cxx_global_var_init()
  ret void
}


!llvm.module.flags = !{!0}
!llvm.ident = !{!1}

!0 = !{i32 1, !"wchar_size", i32 4}
!1 = !{!"clang version 10.0.0-4ubuntu1 "}
