; ModuleID = 'source-C-CXX/51/5929.cpp'
source_filename = "source-C-CXX/51/5929.cpp"
target datalayout = "e-m:e-p270:32:32-p271:32:32-p272:64:64-i64:64-f80:128-n8:16:32:64-S128"
target triple = "x86_64-pc-linux-gnu"

%"class.std::ios_base::Init" = type { i8 }
%"class.std::basic_istream" = type { i32 (...)**, i64, %"class.std::basic_ios" }
%"class.std::basic_ios" = type { %"class.std::ios_base", %"class.std::basic_ostream"*, i8, i8, %"class.std::basic_streambuf"*, %"class.std::ctype"*, %"class.std::num_put"*, %"class.std::num_get"* }
%"class.std::ios_base" = type { i32 (...)**, i64, i64, i32, i32, i32, %"struct.std::ios_base::_Callback_list"*, %"struct.std::ios_base::_Words", [8 x %"struct.std::ios_base::_Words"], i32, %"struct.std::ios_base::_Words"*, %"class.std::locale" }
%"struct.std::ios_base::_Callback_list" = type { %"struct.std::ios_base::_Callback_list"*, void (i32, %"class.std::ios_base"*, i32)*, i32, i32 }
%"struct.std::ios_base::_Words" = type { i8*, i64 }
%"class.std::locale" = type { %"class.std::locale::_Impl"* }
%"class.std::locale::_Impl" = type { i32, %"class.std::locale::facet"**, i64, %"class.std::locale::facet"**, i8** }
%"class.std::locale::facet" = type <{ i32 (...)**, i32, [4 x i8] }>
%"class.std::basic_ostream" = type { i32 (...)**, %"class.std::basic_ios" }
%"class.std::basic_streambuf" = type { i32 (...)**, i8*, i8*, i8*, i8*, i8*, i8*, %"class.std::locale" }
%"class.std::ctype" = type <{ %"class.std::locale::facet.base", [4 x i8], %struct.__locale_struct*, i8, [7 x i8], i32*, i32*, i16*, i8, [256 x i8], [256 x i8], i8, [6 x i8] }>
%"class.std::locale::facet.base" = type <{ i32 (...)**, i32 }>
%struct.__locale_struct = type { [13 x %struct.__locale_data*], i16*, i32*, i32*, [13 x i8*] }
%struct.__locale_data = type opaque
%"class.std::num_put" = type { %"class.std::locale::facet.base", [4 x i8] }
%"class.std::num_get" = type { %"class.std::locale::facet.base", [4 x i8] }

@_ZStL8__ioinit = internal global %"class.std::ios_base::Init" zeroinitializer, align 1
@__dso_handle = external hidden global i8
@_ZSt3cin = external global %"class.std::basic_istream", align 8
@_ZSt4cout = external global %"class.std::basic_ostream", align 8
@.str = private unnamed_addr constant [2 x i8] c" \00", align 1
@llvm.global_ctors = appending global [1 x { i32, void ()*, i8* }] [{ i32, void ()*, i8* } { i32 65535, void ()* @_GLOBAL__sub_I_5929.cpp, i8* null }]

declare void @_ZNSt8ios_base4InitC1Ev(%"class.std::ios_base::Init"* nonnull align 1 dereferenceable(1)) unnamed_addr #0

; Function Attrs: nounwind
declare void @_ZNSt8ios_base4InitD1Ev(%"class.std::ios_base::Init"* nonnull align 1 dereferenceable(1)) unnamed_addr #1

; Function Attrs: nofree nounwind
declare i32 @__cxa_atexit(void (i8*)*, i8*, i8*) local_unnamed_addr #2

; Function Attrs: mustprogress norecurse sspstrong uwtable
define dso_local i32 @main() local_unnamed_addr #3 {
  %1 = alloca i32, align 4
  %2 = alloca i32, align 4
  %3 = alloca [101 x i32], align 16
  %4 = bitcast [101 x i32]* %3 to i8*
  %5 = alloca [101 x i32], align 16
  %6 = bitcast [101 x i32]* %5 to i8*
  %7 = bitcast i32* %1 to i8*
  call void @llvm.lifetime.start.p0i8(i64 4, i8* nonnull %7) #8
  %8 = bitcast i32* %2 to i8*
  call void @llvm.lifetime.start.p0i8(i64 4, i8* nonnull %8) #8
  %9 = call nonnull align 8 dereferenceable(16) %"class.std::basic_istream"* @_ZNSirsERi(%"class.std::basic_istream"* nonnull align 8 dereferenceable(16) @_ZSt3cin, i32* nonnull align 4 dereferenceable(4) %1)
  %10 = call nonnull align 8 dereferenceable(16) %"class.std::basic_istream"* @_ZNSirsERi(%"class.std::basic_istream"* nonnull align 8 dereferenceable(16) %9, i32* nonnull align 4 dereferenceable(4) %2)
  call void @llvm.lifetime.start.p0i8(i64 404, i8* nonnull %4) #8
  call void @llvm.lifetime.start.p0i8(i64 404, i8* nonnull %6) #8
  %11 = load i32, i32* %1, align 4, !tbaa !5
  %12 = icmp sgt i32 %11, 0
  br i1 %12, label %13, label %23

13:                                               ; preds = %0, %13
  %14 = phi i64 [ %19, %13 ], [ 0, %0 ]
  %15 = getelementptr inbounds [101 x i32], [101 x i32]* %3, i64 0, i64 %14
  %16 = call nonnull align 8 dereferenceable(16) %"class.std::basic_istream"* @_ZNSirsERi(%"class.std::basic_istream"* nonnull align 8 dereferenceable(16) @_ZSt3cin, i32* nonnull align 4 dereferenceable(4) %15)
  %17 = load i32, i32* %15, align 4, !tbaa !5
  %18 = getelementptr inbounds [101 x i32], [101 x i32]* %5, i64 0, i64 %14
  store i32 %17, i32* %18, align 4, !tbaa !5
  %19 = add nuw nsw i64 %14, 1
  %20 = load i32, i32* %1, align 4, !tbaa !5
  %21 = sext i32 %20 to i64
  %22 = icmp slt i64 %19, %21
  br i1 %22, label %13, label %23, !llvm.loop !9

23:                                               ; preds = %13, %0
  %24 = phi i32 [ %11, %0 ], [ %20, %13 ]
  %25 = load i32, i32* %2, align 4, !tbaa !5
  %26 = sext i32 %25 to i64
  %27 = icmp slt i32 %25, %24
  br i1 %27, label %28, label %36

28:                                               ; preds = %23
  %29 = getelementptr [101 x i32], [101 x i32]* %3, i64 0, i64 %26
  %30 = bitcast i32* %29 to i8*
  %31 = xor i32 %25, -1
  %32 = add i32 %24, %31
  %33 = zext i32 %32 to i64
  %34 = shl nuw nsw i64 %33, 2
  %35 = add nuw nsw i64 %34, 4
  call void @llvm.memcpy.p0i8.p0i8.i64(i8* noundef nonnull align 4 dereferenceable(1) %30, i8* noundef nonnull align 16 %6, i64 %35, i1 false)
  br label %36

36:                                               ; preds = %28, %23
  %37 = sext i32 %24 to i64
  %38 = icmp sgt i32 %25, 0
  br i1 %38, label %39, label %45

39:                                               ; preds = %36
  %40 = sub nsw i64 %37, %26
  %41 = getelementptr [101 x i32], [101 x i32]* %5, i64 0, i64 %40
  %42 = bitcast i32* %41 to i8*
  %43 = zext i32 %25 to i64
  %44 = shl nuw nsw i64 %43, 2
  call void @llvm.memcpy.p0i8.p0i8.i64(i8* nonnull align 16 %4, i8* align 4 %42, i64 %44, i1 false)
  br label %45

45:                                               ; preds = %39, %36
  %46 = icmp slt i32 %24, 2
  br i1 %46, label %60, label %47

47:                                               ; preds = %45, %47
  %48 = phi i64 [ %53, %47 ], [ 0, %45 ]
  %49 = getelementptr inbounds [101 x i32], [101 x i32]* %3, i64 0, i64 %48
  %50 = load i32, i32* %49, align 4, !tbaa !5
  %51 = call nonnull align 8 dereferenceable(8) %"class.std::basic_ostream"* @_ZNSolsEi(%"class.std::basic_ostream"* nonnull align 8 dereferenceable(8) @_ZSt4cout, i32 %50)
  %52 = call nonnull align 8 dereferenceable(8) %"class.std::basic_ostream"* @_ZSt16__ostream_insertIcSt11char_traitsIcEERSt13basic_ostreamIT_T0_ES6_PKS3_l(%"class.std::basic_ostream"* nonnull align 8 dereferenceable(8) %51, i8* nonnull getelementptr inbounds ([2 x i8], [2 x i8]* @.str, i64 0, i64 0), i64 1)
  %53 = add nuw nsw i64 %48, 1
  %54 = load i32, i32* %1, align 4, !tbaa !5
  %55 = add nsw i32 %54, -2
  %56 = sext i32 %55 to i64
  %57 = icmp slt i64 %48, %56
  br i1 %57, label %47, label %58, !llvm.loop !11

58:                                               ; preds = %47
  %59 = sext i32 %54 to i64
  br label %60

60:                                               ; preds = %58, %45
  %61 = phi i64 [ %59, %58 ], [ %37, %45 ]
  %62 = getelementptr inbounds [101 x i32], [101 x i32]* %3, i64 0, i64 %61
  %63 = getelementptr inbounds i32, i32* %62, i64 -1
  %64 = load i32, i32* %63, align 4, !tbaa !5
  %65 = call nonnull align 8 dereferenceable(8) %"class.std::basic_ostream"* @_ZNSolsEi(%"class.std::basic_ostream"* nonnull align 8 dereferenceable(8) @_ZSt4cout, i32 %64)
  %66 = bitcast %"class.std::basic_ostream"* %65 to i8**
  %67 = load i8*, i8** %66, align 8, !tbaa !12
  %68 = getelementptr i8, i8* %67, i64 -24
  %69 = bitcast i8* %68 to i64*
  %70 = load i64, i64* %69, align 8
  %71 = bitcast %"class.std::basic_ostream"* %65 to i8*
  %72 = add nsw i64 %70, 240
  %73 = getelementptr inbounds i8, i8* %71, i64 %72
  %74 = bitcast i8* %73 to %"class.std::ctype"**
  %75 = load %"class.std::ctype"*, %"class.std::ctype"** %74, align 8, !tbaa !14
  %76 = icmp eq %"class.std::ctype"* %75, null
  br i1 %76, label %77, label %78

77:                                               ; preds = %60
  call void @_ZSt16__throw_bad_castv() #9
  unreachable

78:                                               ; preds = %60
  %79 = getelementptr inbounds %"class.std::ctype", %"class.std::ctype"* %75, i64 0, i32 8
  %80 = load i8, i8* %79, align 8, !tbaa !18
  %81 = icmp eq i8 %80, 0
  br i1 %81, label %85, label %82

82:                                               ; preds = %78
  %83 = getelementptr inbounds %"class.std::ctype", %"class.std::ctype"* %75, i64 0, i32 9, i64 10
  %84 = load i8, i8* %83, align 1, !tbaa !20
  br label %91

85:                                               ; preds = %78
  call void @_ZNKSt5ctypeIcE13_M_widen_initEv(%"class.std::ctype"* nonnull align 8 dereferenceable(570) %75)
  %86 = bitcast %"class.std::ctype"* %75 to i8 (%"class.std::ctype"*, i8)***
  %87 = load i8 (%"class.std::ctype"*, i8)**, i8 (%"class.std::ctype"*, i8)*** %86, align 8, !tbaa !12
  %88 = getelementptr inbounds i8 (%"class.std::ctype"*, i8)*, i8 (%"class.std::ctype"*, i8)** %87, i64 6
  %89 = load i8 (%"class.std::ctype"*, i8)*, i8 (%"class.std::ctype"*, i8)** %88, align 8
  %90 = call signext i8 %89(%"class.std::ctype"* nonnull align 8 dereferenceable(570) %75, i8 signext 10)
  br label %91

91:                                               ; preds = %82, %85
  %92 = phi i8 [ %84, %82 ], [ %90, %85 ]
  %93 = call nonnull align 8 dereferenceable(8) %"class.std::basic_ostream"* @_ZNSo3putEc(%"class.std::basic_ostream"* nonnull align 8 dereferenceable(8) %65, i8 signext %92)
  %94 = call nonnull align 8 dereferenceable(8) %"class.std::basic_ostream"* @_ZNSo5flushEv(%"class.std::basic_ostream"* nonnull align 8 dereferenceable(8) %93)
  call void @llvm.lifetime.end.p0i8(i64 404, i8* nonnull %6) #8
  call void @llvm.lifetime.end.p0i8(i64 404, i8* nonnull %4) #8
  call void @llvm.lifetime.end.p0i8(i64 4, i8* nonnull %8) #8
  call void @llvm.lifetime.end.p0i8(i64 4, i8* nonnull %7) #8
  ret i32 0
}

; Function Attrs: argmemonly mustprogress nofree nosync nounwind willreturn
declare void @llvm.lifetime.start.p0i8(i64 immarg, i8* nocapture) #4

declare nonnull align 8 dereferenceable(16) %"class.std::basic_istream"* @_ZNSirsERi(%"class.std::basic_istream"* nonnull align 8 dereferenceable(16), i32* nonnull align 4 dereferenceable(4)) local_unnamed_addr #0

declare nonnull align 8 dereferenceable(8) %"class.std::basic_ostream"* @_ZNSolsEi(%"class.std::basic_ostream"* nonnull align 8 dereferenceable(8), i32) local_unnamed_addr #0

; Function Attrs: argmemonly mustprogress nofree nosync nounwind willreturn
declare void @llvm.lifetime.end.p0i8(i64 immarg, i8* nocapture) #4

declare nonnull align 8 dereferenceable(8) %"class.std::basic_ostream"* @_ZSt16__ostream_insertIcSt11char_traitsIcEERSt13basic_ostreamIT_T0_ES6_PKS3_l(%"class.std::basic_ostream"* nonnull align 8 dereferenceable(8), i8*, i64) local_unnamed_addr #0

declare nonnull align 8 dereferenceable(8) %"class.std::basic_ostream"* @_ZNSo3putEc(%"class.std::basic_ostream"* nonnull align 8 dereferenceable(8), i8 signext) local_unnamed_addr #0

declare nonnull align 8 dereferenceable(8) %"class.std::basic_ostream"* @_ZNSo5flushEv(%"class.std::basic_ostream"* nonnull align 8 dereferenceable(8)) local_unnamed_addr #0

; Function Attrs: noreturn
declare void @_ZSt16__throw_bad_castv() local_unnamed_addr #5

declare void @_ZNKSt5ctypeIcE13_M_widen_initEv(%"class.std::ctype"* nonnull align 8 dereferenceable(570)) local_unnamed_addr #0

; Function Attrs: sspstrong uwtable
define internal void @_GLOBAL__sub_I_5929.cpp() #6 section ".text.startup" {
  tail call void @_ZNSt8ios_base4InitC1Ev(%"class.std::ios_base::Init"* nonnull align 1 dereferenceable(1) @_ZStL8__ioinit)
  %1 = tail call i32 @__cxa_atexit(void (i8*)* bitcast (void (%"class.std::ios_base::Init"*)* @_ZNSt8ios_base4InitD1Ev to void (i8*)*), i8* getelementptr inbounds (%"class.std::ios_base::Init", %"class.std::ios_base::Init"* @_ZStL8__ioinit, i64 0, i32 0), i8* nonnull @__dso_handle) #8
  ret void
}

; Function Attrs: argmemonly nofree nounwind willreturn
declare void @llvm.memcpy.p0i8.p0i8.i64(i8* noalias nocapture writeonly, i8* noalias nocapture readonly, i64, i1 immarg) #7


!llvm.module.flags = !{!0, !1, !2, !3}
!llvm.ident = !{!4}

!0 = !{i32 1, !"wchar_size", i32 4}
!1 = !{i32 7, !"PIC Level", i32 2}
!2 = !{i32 7, !"PIE Level", i32 2}
!3 = !{i32 7, !"uwtable", i32 1}
!4 = !{!"clang version 13.0.0"}
!5 = !{!6, !6, i64 0}
!6 = !{!"int", !7, i64 0}
!7 = !{!"omnipotent char", !8, i64 0}
!8 = !{!"Simple C++ TBAA"}
!9 = distinct !{!9, !10}
!10 = !{!"llvm.loop.mustprogress"}
!11 = distinct !{!11, !10}
!12 = !{!13, !13, i64 0}
!13 = !{!"vtable pointer", !8, i64 0}
!14 = !{!15, !16, i64 240}
!15 = !{!"_ZTSSt9basic_iosIcSt11char_traitsIcEE", !16, i64 216, !7, i64 224, !17, i64 225, !16, i64 232, !16, i64 240, !16, i64 248, !16, i64 256}
!16 = !{!"any pointer", !7, i64 0}
!17 = !{!"bool", !7, i64 0}
!18 = !{!19, !7, i64 56}
!19 = !{!"_ZTSSt5ctypeIcE", !16, i64 16, !17, i64 24, !16, i64 32, !16, i64 40, !16, i64 48, !7, i64 56, !7, i64 57, !7, i64 313, !7, i64 569}
!20 = !{!7, !7, i64 0}
